target datalayout = "e-m:e-p270:32:32-p271:32:32-p272:64:64-i64:64-i128:128-f80:128-n8:16:32:64-S128"
target triple = "x86_64-unknown-linux-gnu"

%struct.dma_map_ops = type { i32, ptr, ptr, ptr, ptr, ptr, ptr, ptr, ptr, ptr, ptr, ptr, ptr, ptr, ptr, ptr, ptr, ptr, ptr, ptr, ptr, ptr, ptr, ptr, ptr }

@dma_dummy_ops = dso_local local_unnamed_addr constant %struct.dma_map_ops { i32 0, ptr null, ptr null, ptr null, ptr null, ptr null, ptr null, ptr @dma_dummy_mmap, ptr null, ptr @dma_dummy_map_page, ptr null, ptr @dma_dummy_map_sg, ptr null, ptr null, ptr null, ptr null, ptr null, ptr null, ptr null, ptr null, ptr @dma_dummy_supported, ptr null, ptr null, ptr null, ptr null }, align 8

; Function Attrs: fn_ret_thunk_extern mustprogress nofree norecurse nosync nounwind null_pointer_is_valid willreturn memory(none)
define internal noundef i32 @dma_dummy_mmap(ptr nocapture readnone %0, ptr nocapture readnone %1, ptr nocapture readnone %2, i64 %3, i64 %4, i64 %5) #0 align 16 {
  ret i32 -6
}

; Function Attrs: fn_ret_thunk_extern mustprogress nofree norecurse nosync nounwind null_pointer_is_valid willreturn memory(none)
define internal noundef i64 @dma_dummy_map_page(ptr nocapture readnone %0, ptr nocapture readnone %1, i64 %2, i64 %3, i32 %4, i64 %5) #0 align 16 {
  ret i64 -1
}

; Function Attrs: fn_ret_thunk_extern mustprogress nofree norecurse nosync nounwind null_pointer_is_valid willreturn memory(none)
define internal noundef i32 @dma_dummy_map_sg(ptr nocapture readnone %0, ptr nocapture readnone %1, i32 %2, i32 %3, i64 %4) #0 align 16 {
  ret i32 -22
}

; Function Attrs: fn_ret_thunk_extern mustprogress nofree norecurse nosync nounwind null_pointer_is_valid willreturn memory(none)
define internal noundef i32 @dma_dummy_supported(ptr nocapture readnone %0, i64 %1) #0 align 16 {
  ret i32 0
}


!llvm.module.flags = !{!0, !1, !2, !3, !4}

!0 = !{i32 1, !"wchar_size", i32 2}
!1 = !{i32 8, !"cf-protection-branch", i32 1}
!2 = !{i32 4, !"function_return_thunk_extern", i32 1}
!3 = !{i32 4, !"indirect_branch_cs_prefix", i32 1}
!4 = !{i32 4, !"SkipRaxSetup", i32 1}
